target datalayout = "e-m:e-p270:32:32-p271:32:32-p272:64:64-i64:64-i128:128-f80:128-n8:16:32:64-S128"
target triple = "x86_64-pc-linux-gnu"

%struct.NMTUsageOptions = type { i8, i8, i8 }
%class.NMTUsage = type <{ [28 x i64], i64, [28 x %struct.NMTUsagePair], %struct.NMTUsagePair, %struct.NMTUsageOptions, [5 x i8] }>
%struct.NMTUsagePair = type { i64, i64 }

; Function Attrs: mustprogress nounwind uwtable
define linkonce_odr hidden noundef i32 @_ZN7NMTUtil13flag_to_indexE8MEMFLAGS(i8 noundef zeroext %0) #1 comdat align 2 {
  %2 = alloca i8, align 1
  store i8 %0, ptr %2, align 1
  %3 = load i8, ptr %2, align 1
  %4 = zext i8 %3 to i32
  ret i32 %4
}

; Function Attrs: mustprogress nounwind uwtable
define hidden noundef i64 @_ZNK8NMTUsage9committedE8MEMFLAGS(ptr noundef nonnull align 8 dereferenceable(699) %0, i8 noundef zeroext %1) #1 align 2 {
  %3 = alloca ptr, align 8
  %4 = alloca i8, align 1
  %5 = alloca i32, align 4
  store ptr %0, ptr %3, align 8
  store i8 %1, ptr %4, align 1
  %6 = load ptr, ptr %3, align 8
  %7 = load i8, ptr %4, align 1
  %8 = call noundef i32 @_ZN7NMTUtil13flag_to_indexE8MEMFLAGS(i8 noundef zeroext %7)
  store i32 %8, ptr %5, align 4
  %9 = getelementptr inbounds %class.NMTUsage, ptr %6, i32 0, i32 0
  %10 = load i32, ptr %5, align 4
  %11 = sext i32 %10 to i64
  %12 = getelementptr inbounds [28 x i64], ptr %9, i64 0, i64 %11
  %13 = load i64, ptr %12, align 8
  %14 = getelementptr inbounds %class.NMTUsage, ptr %6, i32 0, i32 2
  %15 = load i32, ptr %5, align 4
  %16 = sext i32 %15 to i64
  %17 = getelementptr inbounds [28 x %struct.NMTUsagePair], ptr %14, i64 0, i64 %16
  %18 = getelementptr inbounds %struct.NMTUsagePair, ptr %17, i32 0, i32 1
  %19 = load i64, ptr %18, align 8
  %20 = add i64 %13, %19
  ret i64 %20
}