; Function Attrs: mustprogress nofree norecurse nosync nounwind willreturn memory(argmem: read) uwtable
define hidden noundef i64 @_ZNK8NMTUsage9committedE8MEMFLAGS(ptr nocapture noundef nonnull readonly align 8 dereferenceable(699) %0, i8 noundef zeroext %1) local_unnamed_addr #6 align 2 {
  %3 = zext i8 %1 to i64
  %4 = getelementptr inbounds [28 x i64], ptr %0, i64 0, i64 %3
  %5 = load i64, ptr %4, align 8
  %6 = getelementptr inbounds i8, ptr %0, i64 232
  %7 = getelementptr inbounds [28 x %struct.NMTUsagePair], ptr %6, i64 0, i64 %3, i32 1
  %8 = load i64, ptr %7, align 8
  %9 = add i64 %8, %5
  ret i64 %9
}